target datalayout = "e-m:e-p270:32:32-p271:32:32-p272:64:64-i64:64-i128:128-f80:128-n8:16:32:64-S128"
target triple = "x86_64-pc-linux-gnu"

%"class.Imf_3_4::OutputPart" = type { ptr }

@_ZN7Imf_3_410OutputPartC1ERNS_19MultiPartOutputFileEi = unnamed_addr alias void (ptr, ptr, i32), ptr @_ZN7Imf_3_410OutputPartC2ERNS_19MultiPartOutputFileEi

; Function Attrs: mustprogress uwtable
define void @_ZN7Imf_3_410OutputPartC2ERNS_19MultiPartOutputFileEi(ptr noundef nonnull align 8 dereferenceable(8) %0, ptr noundef nonnull align 8 dereferenceable(16) %1, i32 noundef %2) unnamed_addr #0 align 2 {
  %4 = alloca ptr, align 8
  %5 = alloca ptr, align 8
  %6 = alloca i32, align 4
  store ptr %0, ptr %4, align 8, !tbaa !3
  store ptr %1, ptr %5, align 8, !tbaa !8
  store i32 %2, ptr %6, align 4, !tbaa !10
  %7 = load ptr, ptr %4, align 8
  %8 = load ptr, ptr %5, align 8, !tbaa !8
  %9 = load i32, ptr %6, align 4, !tbaa !10
  %10 = call noundef ptr @_ZN7Imf_3_419MultiPartOutputFile13getOutputPartINS_10OutputFileEEEPT_i(ptr noundef nonnull align 8 dereferenceable(16) %8, i32 noundef %9)
  %11 = getelementptr inbounds nuw %"class.Imf_3_4::OutputPart", ptr %7, i32 0, i32 0
  store ptr %10, ptr %11, align 8, !tbaa !12
  ret void
}

declare hidden noundef ptr @_ZN7Imf_3_419MultiPartOutputFile13getOutputPartINS_10OutputFileEEEPT_i(ptr noundef nonnull align 8 dereferenceable(16), i32 noundef) #1

; Function Attrs: mustprogress uwtable
define noundef ptr @_ZNK7Imf_3_410OutputPart8fileNameEv(ptr noundef nonnull align 8 dereferenceable(8) %0) #0 align 2 {
  %2 = alloca ptr, align 8
  store ptr %0, ptr %2, align 8, !tbaa !3
  %3 = load ptr, ptr %2, align 8
  %4 = getelementptr inbounds nuw %"class.Imf_3_4::OutputPart", ptr %3, i32 0, i32 0
  %5 = load ptr, ptr %4, align 8, !tbaa !12
  %6 = call noundef ptr @_ZNK7Imf_3_410OutputFile8fileNameEv(ptr noundef nonnull align 8 dereferenceable(16) %5)
  ret ptr %6
}

declare noundef ptr @_ZNK7Imf_3_410OutputFile8fileNameEv(ptr noundef nonnull align 8 dereferenceable(16)) #1

; Function Attrs: mustprogress uwtable
define noundef nonnull align 1 ptr @_ZNK7Imf_3_410OutputPart6headerEv(ptr noundef nonnull align 8 dereferenceable(8) %0) #0 align 2 {
  %2 = alloca ptr, align 8
  store ptr %0, ptr %2, align 8, !tbaa !3
  %3 = load ptr, ptr %2, align 8
  %4 = getelementptr inbounds nuw %"class.Imf_3_4::OutputPart", ptr %3, i32 0, i32 0
  %5 = load ptr, ptr %4, align 8, !tbaa !12
  %6 = call noundef nonnull align 1 ptr @_ZNK7Imf_3_410OutputFile6headerEv(ptr noundef nonnull align 8 dereferenceable(16) %5)
  ret ptr %6
}

declare noundef nonnull align 1 ptr @_ZNK7Imf_3_410OutputFile6headerEv(ptr noundef nonnull align 8 dereferenceable(16)) #1

; Function Attrs: mustprogress uwtable
define void @_ZN7Imf_3_410OutputPart14setFrameBufferERKNS_11FrameBufferE(ptr noundef nonnull align 8 dereferenceable(8) %0, ptr noundef nonnull align 1 %1) #0 align 2 {
  %3 = alloca ptr, align 8
  %4 = alloca ptr, align 8
  store ptr %0, ptr %3, align 8, !tbaa !3
  store ptr %1, ptr %4, align 8, !tbaa !15
  %5 = load ptr, ptr %3, align 8
  %6 = getelementptr inbounds nuw %"class.Imf_3_4::OutputPart", ptr %5, i32 0, i32 0
  %7 = load ptr, ptr %6, align 8, !tbaa !12
  %8 = load ptr, ptr %4, align 8, !tbaa !15
  call void @_ZN7Imf_3_410OutputFile14setFrameBufferERKNS_11FrameBufferE(ptr noundef nonnull align 8 dereferenceable(16) %7, ptr noundef nonnull align 1 %8)
  ret void
}

declare void @_ZN7Imf_3_410OutputFile14setFrameBufferERKNS_11FrameBufferE(ptr noundef nonnull align 8 dereferenceable(16), ptr noundef nonnull align 1) #1

; Function Attrs: mustprogress uwtable
define noundef nonnull align 1 ptr @_ZNK7Imf_3_410OutputPart11frameBufferEv(ptr noundef nonnull align 8 dereferenceable(8) %0) #0 align 2 {
  %2 = alloca ptr, align 8
  store ptr %0, ptr %2, align 8, !tbaa !3
  %3 = load ptr, ptr %2, align 8
  %4 = getelementptr inbounds nuw %"class.Imf_3_4::OutputPart", ptr %3, i32 0, i32 0
  %5 = load ptr, ptr %4, align 8, !tbaa !12
  %6 = call noundef nonnull align 1 ptr @_ZNK7Imf_3_410OutputFile11frameBufferEv(ptr noundef nonnull align 8 dereferenceable(16) %5)
  ret ptr %6
}

declare noundef nonnull align 1 ptr @_ZNK7Imf_3_410OutputFile11frameBufferEv(ptr noundef nonnull align 8 dereferenceable(16)) #1

; Function Attrs: mustprogress uwtable
define void @_ZN7Imf_3_410OutputPart11writePixelsEi(ptr noundef nonnull align 8 dereferenceable(8) %0, i32 noundef %1) #0 align 2 {
  %3 = alloca ptr, align 8
  %4 = alloca i32, align 4
  store ptr %0, ptr %3, align 8, !tbaa !3
  store i32 %1, ptr %4, align 4, !tbaa !10
  %5 = load ptr, ptr %3, align 8
  %6 = getelementptr inbounds nuw %"class.Imf_3_4::OutputPart", ptr %5, i32 0, i32 0
  %7 = load ptr, ptr %6, align 8, !tbaa !12
  %8 = load i32, ptr %4, align 4, !tbaa !10
  call void @_ZN7Imf_3_410OutputFile11writePixelsEi(ptr noundef nonnull align 8 dereferenceable(16) %7, i32 noundef %8)
  ret void
}

declare void @_ZN7Imf_3_410OutputFile11writePixelsEi(ptr noundef nonnull align 8 dereferenceable(16), i32 noundef) #1

; Function Attrs: mustprogress uwtable
define noundef i32 @_ZNK7Imf_3_410OutputPart15currentScanLineEv(ptr noundef nonnull align 8 dereferenceable(8) %0) #0 align 2 {
  %2 = alloca ptr, align 8
  store ptr %0, ptr %2, align 8, !tbaa !3
  %3 = load ptr, ptr %2, align 8
  %4 = getelementptr inbounds nuw %"class.Imf_3_4::OutputPart", ptr %3, i32 0, i32 0
  %5 = load ptr, ptr %4, align 8, !tbaa !12
  %6 = call noundef i32 @_ZNK7Imf_3_410OutputFile15currentScanLineEv(ptr noundef nonnull align 8 dereferenceable(16) %5)
  ret i32 %6
}

declare noundef i32 @_ZNK7Imf_3_410OutputFile15currentScanLineEv(ptr noundef nonnull align 8 dereferenceable(16)) #1

; Function Attrs: mustprogress uwtable
define void @_ZN7Imf_3_410OutputPart10copyPixelsERNS_9InputFileE(ptr noundef nonnull align 8 dereferenceable(8) %0, ptr noundef nonnull align 1 %1) #0 align 2 {
  %3 = alloca ptr, align 8
  %4 = alloca ptr, align 8
  store ptr %0, ptr %3, align 8, !tbaa !3
  store ptr %1, ptr %4, align 8, !tbaa !17
  %5 = load ptr, ptr %3, align 8
  %6 = getelementptr inbounds nuw %"class.Imf_3_4::OutputPart", ptr %5, i32 0, i32 0
  %7 = load ptr, ptr %6, align 8, !tbaa !12
  %8 = load ptr, ptr %4, align 8, !tbaa !17
  call void @_ZN7Imf_3_410OutputFile10copyPixelsERNS_9InputFileE(ptr noundef nonnull align 8 dereferenceable(16) %7, ptr noundef nonnull align 1 %8)
  ret void
}

declare void @_ZN7Imf_3_410OutputFile10copyPixelsERNS_9InputFileE(ptr noundef nonnull align 8 dereferenceable(16), ptr noundef nonnull align 1) #1

; Function Attrs: mustprogress uwtable
define void @_ZN7Imf_3_410OutputPart10copyPixelsERNS_9InputPartE(ptr noundef nonnull align 8 dereferenceable(8) %0, ptr noundef nonnull align 1 %1) #0 align 2 {
  %3 = alloca ptr, align 8
  %4 = alloca ptr, align 8
  store ptr %0, ptr %3, align 8, !tbaa !3
  store ptr %1, ptr %4, align 8, !tbaa !19
  %5 = load ptr, ptr %3, align 8
  %6 = getelementptr inbounds nuw %"class.Imf_3_4::OutputPart", ptr %5, i32 0, i32 0
  %7 = load ptr, ptr %6, align 8, !tbaa !12
  %8 = load ptr, ptr %4, align 8, !tbaa !19
  call void @_ZN7Imf_3_410OutputFile10copyPixelsERNS_9InputPartE(ptr noundef nonnull align 8 dereferenceable(16) %7, ptr noundef nonnull align 1 %8)
  ret void
}

declare void @_ZN7Imf_3_410OutputFile10copyPixelsERNS_9InputPartE(ptr noundef nonnull align 8 dereferenceable(16), ptr noundef nonnull align 1) #1

; Function Attrs: mustprogress uwtable
define void @_ZN7Imf_3_410OutputPart18updatePreviewImageEPKNS_11PreviewRgbaE(ptr noundef nonnull align 8 dereferenceable(8) %0, ptr noundef %1) #0 align 2 {
  %3 = alloca ptr, align 8
  %4 = alloca ptr, align 8
  store ptr %0, ptr %3, align 8, !tbaa !3
  store ptr %1, ptr %4, align 8, !tbaa !21
  %5 = load ptr, ptr %3, align 8
  %6 = getelementptr inbounds nuw %"class.Imf_3_4::OutputPart", ptr %5, i32 0, i32 0
  %7 = load ptr, ptr %6, align 8, !tbaa !12
  %8 = load ptr, ptr %4, align 8, !tbaa !21
  call void @_ZN7Imf_3_410OutputFile18updatePreviewImageEPKNS_11PreviewRgbaE(ptr noundef nonnull align 8 dereferenceable(16) %7, ptr noundef %8)
  ret void
}

declare void @_ZN7Imf_3_410OutputFile18updatePreviewImageEPKNS_11PreviewRgbaE(ptr noundef nonnull align 8 dereferenceable(16), ptr noundef) #1

; Function Attrs: mustprogress uwtable
define void @_ZN7Imf_3_410OutputPart13breakScanLineEiiic(ptr noundef nonnull align 8 dereferenceable(8) %0, i32 noundef %1, i32 noundef %2, i32 noundef %3, i8 noundef signext %4) #0 align 2 {
  %6 = alloca ptr, align 8
  %7 = alloca i32, align 4
  %8 = alloca i32, align 4
  %9 = alloca i32, align 4
  %10 = alloca i8, align 1
  store ptr %0, ptr %6, align 8, !tbaa !3
  store i32 %1, ptr %7, align 4, !tbaa !10
  store i32 %2, ptr %8, align 4, !tbaa !10
  store i32 %3, ptr %9, align 4, !tbaa !10
  store i8 %4, ptr %10, align 1, !tbaa !23
  %11 = load ptr, ptr %6, align 8
  %12 = getelementptr inbounds nuw %"class.Imf_3_4::OutputPart", ptr %11, i32 0, i32 0
  %13 = load ptr, ptr %12, align 8, !tbaa !12
  %14 = load i32, ptr %7, align 4, !tbaa !10
  %15 = load i32, ptr %8, align 4, !tbaa !10
  %16 = load i32, ptr %9, align 4, !tbaa !10
  %17 = load i8, ptr %10, align 1, !tbaa !23
  call void @_ZN7Imf_3_410OutputFile13breakScanLineEiiic(ptr noundef nonnull align 8 dereferenceable(16) %13, i32 noundef %14, i32 noundef %15, i32 noundef %16, i8 noundef signext %17)
  ret void
}

declare void @_ZN7Imf_3_410OutputFile13breakScanLineEiiic(ptr noundef nonnull align 8 dereferenceable(16), i32 noundef, i32 noundef, i32 noundef, i8 noundef signext) #1


!llvm.module.flags = !{!0, !1, !2}

!0 = !{i32 1, !"wchar_size", i32 4}
!1 = !{i32 8, !"PIC Level", i32 2}
!2 = !{i32 7, !"uwtable", i32 2}
!3 = !{!4, !4, i64 0}
!4 = !{!"p1 _ZTSN7Imf_3_410OutputPartE", !5, i64 0}
!5 = !{!"any pointer", !6, i64 0}
!6 = !{!"omnipotent char", !7, i64 0}
!7 = !{!"Simple C++ TBAA"}
!8 = !{!9, !9, i64 0}
!9 = !{!"p1 _ZTSN7Imf_3_419MultiPartOutputFileE", !5, i64 0}
!10 = !{!11, !11, i64 0}
!11 = !{!"int", !6, i64 0}
!12 = !{!13, !14, i64 0}
!13 = !{!"_ZTSN7Imf_3_410OutputPartE", !14, i64 0}
!14 = !{!"p1 _ZTSN7Imf_3_410OutputFileE", !5, i64 0}
!15 = !{!16, !16, i64 0}
!16 = !{!"p1 _ZTSN7Imf_3_411FrameBufferE", !5, i64 0}
!17 = !{!18, !18, i64 0}
!18 = !{!"p1 _ZTSN7Imf_3_49InputFileE", !5, i64 0}
!19 = !{!20, !20, i64 0}
!20 = !{!"p1 _ZTSN7Imf_3_49InputPartE", !5, i64 0}
!21 = !{!22, !22, i64 0}
!22 = !{!"p1 _ZTSN7Imf_3_411PreviewRgbaE", !5, i64 0}
!23 = !{!6, !6, i64 0}
